target datalayout = "e-m:e-p270:32:32-p271:32:32-p272:64:64-i64:64-i128:128-f80:128-n8:16:32:64-S128"
target triple = "x86_64-pc-linux-gnu"

%struct.LexState = type { i32, i32, i32, %struct.Token, %struct.Token, ptr, ptr, ptr, ptr, ptr, ptr, ptr, ptr }
%struct.Token = type { i32, %union.SemInfo }
%union.SemInfo = type { double }
%struct.Mbuffer = type { ptr, i64, i64 }

@luai_ctype_ = external hidden constant [257 x i8], align 16
@.str.1 = private unnamed_addr constant [5 x i8] c"'%c'\00", align 1
@.str.2 = private unnamed_addr constant [8 x i8] c"'<\\%d>'\00", align 1
@.str.3 = private unnamed_addr constant [5 x i8] c"'%s'\00", align 1
@.str.41 = private unnamed_addr constant [11 x i8] c"%s near %s\00", align 1
@.str.42 = private unnamed_addr constant [25 x i8] c"lexical element too long\00", align 1

; Function Attrs: nounwind uwtable
define hidden ptr @luaX_token2str(ptr noundef %0, i32 noundef %1) #0 {
  %3 = alloca ptr, align 8
  %4 = alloca ptr, align 8
  %5 = alloca i32, align 4
  %6 = alloca ptr, align 8
  %7 = alloca i32, align 4
  store ptr %0, ptr %4, align 8, !tbaa !18
  store i32 %1, ptr %5, align 4, !tbaa !11
  %8 = load i32, ptr %5, align 4, !tbaa !11
  %9 = icmp slt i32 %8, 256
  br i1 %9, label %10, label %31

10:                                               ; preds = %2
  %11 = load i32, ptr %5, align 4, !tbaa !11
  %12 = add nsw i32 %11, 1
  %13 = sext i32 %12 to i64
  %14 = getelementptr inbounds [257 x i8], ptr @luai_ctype_, i64 0, i64 %13
  %15 = load i8, ptr %14, align 1, !tbaa !20
  %16 = zext i8 %15 to i32
  %17 = and i32 %16, 4
  %18 = icmp ne i32 %17, 0
  br i1 %18, label %19, label %25

19:                                               ; preds = %10
  %20 = load ptr, ptr %4, align 8, !tbaa !18
  %21 = getelementptr inbounds nuw %struct.LexState, ptr %20, i32 0, i32 6
  %22 = load ptr, ptr %21, align 8, !tbaa !21
  %23 = load i32, ptr %5, align 4, !tbaa !11
  %24 = call ptr (ptr, ptr, ...) @luaO_pushfstring(ptr noundef %22, ptr noundef @.str.1, i32 noundef %23)
  store ptr %24, ptr %3, align 8
  br label %48

25:                                               ; preds = %10
  %26 = load ptr, ptr %4, align 8, !tbaa !18
  %27 = getelementptr inbounds nuw %struct.LexState, ptr %26, i32 0, i32 6
  %28 = load ptr, ptr %27, align 8, !tbaa !21
  %29 = load i32, ptr %5, align 4, !tbaa !11
  %30 = call ptr (ptr, ptr, ...) @luaO_pushfstring(ptr noundef %28, ptr noundef @.str.2, i32 noundef %29)
  store ptr %30, ptr %3, align 8
  br label %48

31:                                               ; preds = %2
  call void @llvm.lifetime.start.p0(i64 8, ptr %6) #6
  %32 = load i32, ptr %5, align 4, !tbaa !11
  %33 = sub nsw i32 %32, 256
  %34 = sext i32 %33 to i64
  %35 = getelementptr inbounds [37 x ptr], ptr @luaX_tokens, i64 0, i64 %34
  %36 = load ptr, ptr %35, align 8, !tbaa !13
  store ptr %36, ptr %6, align 8, !tbaa !13
  %37 = load i32, ptr %5, align 4, !tbaa !11
  %38 = icmp slt i32 %37, 288
  br i1 %38, label %39, label %45

39:                                               ; preds = %31
  %40 = load ptr, ptr %4, align 8, !tbaa !18
  %41 = getelementptr inbounds nuw %struct.LexState, ptr %40, i32 0, i32 6
  %42 = load ptr, ptr %41, align 8, !tbaa !21
  %43 = load ptr, ptr %6, align 8, !tbaa !13
  %44 = call ptr (ptr, ptr, ...) @luaO_pushfstring(ptr noundef %42, ptr noundef @.str.3, ptr noundef %43)
  store ptr %44, ptr %3, align 8
  store i32 1, ptr %7, align 4
  br label %47

45:                                               ; preds = %31
  %46 = load ptr, ptr %6, align 8, !tbaa !13
  store ptr %46, ptr %3, align 8
  store i32 1, ptr %7, align 4
  br label %47

47:                                               ; preds = %45, %39
  call void @llvm.lifetime.end.p0(i64 8, ptr %6) #6
  br label %48

48:                                               ; preds = %47, %25, %19
  %49 = load ptr, ptr %3, align 8
  ret ptr %49
}

; Function Attrs: nounwind uwtable
define internal void @save(ptr noundef %0, i32 noundef %1) #0 {
  %3 = alloca ptr, align 8
  %4 = alloca i32, align 4
  %5 = alloca ptr, align 8
  %6 = alloca i64, align 8
  store ptr %0, ptr %3, align 8, !tbaa !18
  store i32 %1, ptr %4, align 4, !tbaa !11
  call void @llvm.lifetime.start.p0(i64 8, ptr %5) #6
  %7 = load ptr, ptr %3, align 8, !tbaa !18
  %8 = getelementptr inbounds nuw %struct.LexState, ptr %7, i32 0, i32 8
  %9 = load ptr, ptr %8, align 8, !tbaa !61
  store ptr %9, ptr %5, align 8, !tbaa !72
  %10 = load ptr, ptr %5, align 8, !tbaa !72
  %11 = getelementptr inbounds nuw %struct.Mbuffer, ptr %10, i32 0, i32 1
  %12 = load i64, ptr %11, align 8, !tbaa !67
  %13 = add i64 %12, 1
  %14 = load ptr, ptr %5, align 8, !tbaa !72
  %15 = getelementptr inbounds nuw %struct.Mbuffer, ptr %14, i32 0, i32 2
  %16 = load i64, ptr %15, align 8, !tbaa !64
  %17 = icmp ugt i64 %13, %16
  br i1 %17, label %18, label %48

18:                                               ; preds = %2
  call void @llvm.lifetime.start.p0(i64 8, ptr %6) #6
  %19 = load ptr, ptr %5, align 8, !tbaa !72
  %20 = getelementptr inbounds nuw %struct.Mbuffer, ptr %19, i32 0, i32 2
  %21 = load i64, ptr %20, align 8, !tbaa !64
  %22 = icmp uge i64 %21, 4611686018427387903
  br i1 %22, label %23, label %25

23:                                               ; preds = %18
  %24 = load ptr, ptr %3, align 8, !tbaa !18
  call void @lexerror(ptr noundef %24, ptr noundef @.str.42, i32 noundef 0) #7
  unreachable

25:                                               ; preds = %18
  %26 = load ptr, ptr %5, align 8, !tbaa !72
  %27 = getelementptr inbounds nuw %struct.Mbuffer, ptr %26, i32 0, i32 2
  %28 = load i64, ptr %27, align 8, !tbaa !64
  %29 = mul i64 %28, 2
  store i64 %29, ptr %6, align 8, !tbaa !32
  %30 = load ptr, ptr %3, align 8, !tbaa !18
  %31 = getelementptr inbounds nuw %struct.LexState, ptr %30, i32 0, i32 6
  %32 = load ptr, ptr %31, align 8, !tbaa !21
  %33 = load ptr, ptr %5, align 8, !tbaa !72
  %34 = getelementptr inbounds nuw %struct.Mbuffer, ptr %33, i32 0, i32 0
  %35 = load ptr, ptr %34, align 8, !tbaa !62
  %36 = load ptr, ptr %5, align 8, !tbaa !72
  %37 = getelementptr inbounds nuw %struct.Mbuffer, ptr %36, i32 0, i32 2
  %38 = load i64, ptr %37, align 8, !tbaa !64
  %39 = mul i64 %38, 1
  %40 = load i64, ptr %6, align 8, !tbaa !32
  %41 = mul i64 %40, 1
  %42 = call ptr @luaM_saferealloc_(ptr noundef %32, ptr noundef %35, i64 noundef %39, i64 noundef %41)
  %43 = load ptr, ptr %5, align 8, !tbaa !72
  %44 = getelementptr inbounds nuw %struct.Mbuffer, ptr %43, i32 0, i32 0
  store ptr %42, ptr %44, align 8, !tbaa !62
  %45 = load i64, ptr %6, align 8, !tbaa !32
  %46 = load ptr, ptr %5, align 8, !tbaa !72
  %47 = getelementptr inbounds nuw %struct.Mbuffer, ptr %46, i32 0, i32 2
  store i64 %45, ptr %47, align 8, !tbaa !64
  call void @llvm.lifetime.end.p0(i64 8, ptr %6) #6
  br label %48

48:                                               ; preds = %25, %2
  %49 = load i32, ptr %4, align 4, !tbaa !11
  %50 = trunc i32 %49 to i8
  %51 = load ptr, ptr %5, align 8, !tbaa !72
  %52 = getelementptr inbounds nuw %struct.Mbuffer, ptr %51, i32 0, i32 0
  %53 = load ptr, ptr %52, align 8, !tbaa !62
  %54 = load ptr, ptr %5, align 8, !tbaa !72
  %55 = getelementptr inbounds nuw %struct.Mbuffer, ptr %54, i32 0, i32 1
  %56 = load i64, ptr %55, align 8, !tbaa !67
  %57 = add i64 %56, 1
  store i64 %57, ptr %55, align 8, !tbaa !67
  %58 = getelementptr inbounds nuw i8, ptr %53, i64 %56
  store i8 %50, ptr %58, align 1, !tbaa !20
  call void @llvm.lifetime.end.p0(i64 8, ptr %5) #6
  ret void
}

; Function Attrs: nounwind uwtable
define internal ptr @txtToken(ptr noundef %0, i32 noundef %1) #0 {
  %3 = alloca ptr, align 8
  %4 = alloca ptr, align 8
  %5 = alloca i32, align 4
  store ptr %0, ptr %4, align 8, !tbaa !18
  store i32 %1, ptr %5, align 4, !tbaa !11
  %6 = load i32, ptr %5, align 4, !tbaa !11
  switch i32 %6, label %18 [
    i32 291, label %7
    i32 292, label %7
    i32 289, label %7
    i32 290, label %7
  ]

7:                                                ; preds = %2, %2, %2, %2
  %8 = load ptr, ptr %4, align 8, !tbaa !18
  call void @save(ptr noundef %8, i32 noundef 0)
  %9 = load ptr, ptr %4, align 8, !tbaa !18
  %10 = getelementptr inbounds nuw %struct.LexState, ptr %9, i32 0, i32 6
  %11 = load ptr, ptr %10, align 8, !tbaa !21
  %12 = load ptr, ptr %4, align 8, !tbaa !18
  %13 = getelementptr inbounds nuw %struct.LexState, ptr %12, i32 0, i32 8
  %14 = load ptr, ptr %13, align 8, !tbaa !61
  %15 = getelementptr inbounds nuw %struct.Mbuffer, ptr %14, i32 0, i32 0
  %16 = load ptr, ptr %15, align 8, !tbaa !62
  %17 = call ptr (ptr, ptr, ...) @luaO_pushfstring(ptr noundef %11, ptr noundef @.str.3, ptr noundef %16)
  store ptr %17, ptr %3, align 8
  br label %22

18:                                               ; preds = %2
  %19 = load ptr, ptr %4, align 8, !tbaa !18
  %20 = load i32, ptr %5, align 4, !tbaa !11
  %21 = call ptr @luaX_token2str(ptr noundef %19, i32 noundef %20)
  store ptr %21, ptr %3, align 8
  br label %22

22:                                               ; preds = %18, %7
  %23 = load ptr, ptr %3, align 8
  ret ptr %23
}

; Function Attrs: noreturn nounwind uwtable
define internal void @lexerror(ptr noundef %0, ptr noundef %1, i32 noundef %2) #3 {
  %4 = alloca ptr, align 8
  %5 = alloca ptr, align 8
  %6 = alloca i32, align 4
  store ptr %0, ptr %4, align 8, !tbaa !18
  store ptr %1, ptr %5, align 8, !tbaa !13
  store i32 %2, ptr %6, align 4, !tbaa !11
  %7 = load ptr, ptr %4, align 8, !tbaa !18
  %8 = getelementptr inbounds nuw %struct.LexState, ptr %7, i32 0, i32 6
  %9 = load ptr, ptr %8, align 8, !tbaa !21
  %10 = load ptr, ptr %5, align 8, !tbaa !13
  %11 = load ptr, ptr %4, align 8, !tbaa !18
  %12 = getelementptr inbounds nuw %struct.LexState, ptr %11, i32 0, i32 11
  %13 = load ptr, ptr %12, align 8, !tbaa !30
  %14 = load ptr, ptr %4, align 8, !tbaa !18
  %15 = getelementptr inbounds nuw %struct.LexState, ptr %14, i32 0, i32 1
  %16 = load i32, ptr %15, align 4, !tbaa !31
  %17 = call ptr @luaG_addinfo(ptr noundef %9, ptr noundef %10, ptr noundef %13, i32 noundef %16)
  store ptr %17, ptr %5, align 8, !tbaa !13
  %18 = load i32, ptr %6, align 4, !tbaa !11
  %19 = icmp ne i32 %18, 0
  br i1 %19, label %20, label %29

20:                                               ; preds = %3
  %21 = load ptr, ptr %4, align 8, !tbaa !18
  %22 = getelementptr inbounds nuw %struct.LexState, ptr %21, i32 0, i32 6
  %23 = load ptr, ptr %22, align 8, !tbaa !21
  %24 = load ptr, ptr %5, align 8, !tbaa !13
  %25 = load ptr, ptr %4, align 8, !tbaa !18
  %26 = load i32, ptr %6, align 4, !tbaa !11
  %27 = call ptr @txtToken(ptr noundef %25, i32 noundef %26)
  %28 = call ptr (ptr, ptr, ...) @luaO_pushfstring(ptr noundef %23, ptr noundef @.str.41, ptr noundef %24, ptr noundef %27)
  br label %29

29:                                               ; preds = %20, %3
  %30 = load ptr, ptr %4, align 8, !tbaa !18
  %31 = getelementptr inbounds nuw %struct.LexState, ptr %30, i32 0, i32 6
  %32 = load ptr, ptr %31, align 8, !tbaa !21
  call void @luaD_throw(ptr noundef %32, i32 noundef 3) #7
  unreachable
}