; Function Attrs: noreturn nounwind uwtable
define internal fastcc void @lexerror(ptr noundef readonly captures(none) %0, ptr noundef %1, i32 noundef %2) unnamed_addr #3 {
  %4 = getelementptr inbounds nuw i8, ptr %0, i64 56
  %5 = load ptr, ptr %4, align 8, !tbaa !14
  %6 = getelementptr inbounds nuw i8, ptr %0, i64 96
  %7 = load ptr, ptr %6, align 8, !tbaa !25
  %8 = getelementptr inbounds nuw i8, ptr %0, i64 4
  %9 = load i32, ptr %8, align 4, !tbaa !26
  %10 = tail call ptr @luaG_addinfo(ptr noundef %5, ptr noundef %1, ptr noundef %7, i32 noundef %9) #6
  %.not = icmp eq i32 %2, 0
  br i1 %.not, label %57, label %11

11:                                               ; preds = %3
  %12 = load ptr, ptr %4, align 8, !tbaa !14
  %.off.i = add i32 %2, -289
  %switch.i = icmp ult i32 %.off.i, 4
  br i1 %switch.i, label %13, label %36

13:                                               ; preds = %11
  %14 = getelementptr inbounds nuw i8, ptr %0, i64 72
  %15 = load ptr, ptr %14, align 8, !tbaa !27
  %16 = getelementptr inbounds nuw i8, ptr %15, i64 8
  %17 = load i64, ptr %16, align 8, !tbaa !28
  %18 = add i64 %17, 1
  %19 = getelementptr inbounds nuw i8, ptr %15, i64 16
  %20 = load i64, ptr %19, align 8, !tbaa !31
  %21 = icmp ugt i64 %18, %20
  br i1 %21, label %22, label %.save.exit_crit_edge

.save.exit_crit_edge:                             ; preds = %13
  %.pre = load ptr, ptr %15, align 8, !tbaa !32
  br label %save.exit

22:                                               ; preds = %13
  %23 = icmp ugt i64 %20, 4611686018427387902
  br i1 %23, label %24, label %25

24:                                               ; preds = %22
  tail call fastcc void @lexerror(ptr noundef nonnull %0, ptr noundef nonnull @.str.42, i32 noundef 0) #7
  unreachable

25:                                               ; preds = %22
  %26 = shl nuw nsw i64 %20, 1
  %27 = load ptr, ptr %15, align 8, !tbaa !32
  %28 = tail call ptr @luaM_saferealloc_(ptr noundef %12, ptr noundef %27, i64 noundef %20, i64 noundef %26) #6
  store ptr %28, ptr %15, align 8, !tbaa !32
  store i64 %26, ptr %19, align 8, !tbaa !31
  %.pre10 = load i64, ptr %16, align 8, !tbaa !28
  %.pre11 = add i64 %.pre10, 1
  br label %save.exit

save.exit:                                        ; preds = %.save.exit_crit_edge, %25
  %.pre-phi = phi i64 [ %18, %.save.exit_crit_edge ], [ %.pre11, %25 ]
  %29 = phi i64 [ %17, %.save.exit_crit_edge ], [ %.pre10, %25 ]
  %30 = phi ptr [ %.pre, %.save.exit_crit_edge ], [ %28, %25 ]
  store i64 %.pre-phi, ptr %16, align 8, !tbaa !28
  %31 = getelementptr inbounds nuw i8, ptr %30, i64 %29
  store i8 0, ptr %31, align 1, !tbaa !13
  %32 = load ptr, ptr %4, align 8, !tbaa !14
  %33 = load ptr, ptr %14, align 8, !tbaa !27
  %34 = load ptr, ptr %33, align 8, !tbaa !32
  %35 = tail call ptr (ptr, ptr, ...) @luaO_pushfstring(ptr noundef %32, ptr noundef nonnull @.str.3, ptr noundef %34) #6
  br label %txtToken.exit

36:                                               ; preds = %11
  %37 = icmp slt i32 %2, 256
  br i1 %37, label %38, label %48

38:                                               ; preds = %36
  %39 = add nsw i32 %2, 1
  %40 = sext i32 %39 to i64
  %41 = getelementptr inbounds [257 x i8], ptr @luai_ctype_, i64 0, i64 %40
  %42 = load i8, ptr %41, align 1, !tbaa !13
  %43 = and i8 %42, 4
  %.not.i = icmp eq i8 %43, 0
  br i1 %.not.i, label %46, label %44

44:                                               ; preds = %38
  %45 = tail call ptr (ptr, ptr, ...) @luaO_pushfstring(ptr noundef %12, ptr noundef nonnull @.str.1, i32 noundef range(i32 1, 0) %2) #6
  br label %txtToken.exit

46:                                               ; preds = %38
  %47 = tail call ptr (ptr, ptr, ...) @luaO_pushfstring(ptr noundef %12, ptr noundef nonnull @.str.2, i32 noundef range(i32 1, 0) %2) #6
  br label %txtToken.exit

48:                                               ; preds = %36
  %49 = add nsw i32 %2, -256
  %50 = zext nneg i32 %49 to i64
  %51 = getelementptr inbounds nuw [37 x ptr], ptr @luaX_tokens, i64 0, i64 %50
  %52 = load ptr, ptr %51, align 8, !tbaa !4
  %53 = icmp samesign ult i32 %2, 288
  br i1 %53, label %54, label %txtToken.exit

54:                                               ; preds = %48
  %55 = tail call ptr (ptr, ptr, ...) @luaO_pushfstring(ptr noundef %12, ptr noundef nonnull @.str.3, ptr noundef %52) #6
  br label %txtToken.exit

txtToken.exit:                                    ; preds = %54, %48, %46, %44, %save.exit
  %.0.i = phi ptr [ %35, %save.exit ], [ %45, %44 ], [ %47, %46 ], [ %55, %54 ], [ %52, %48 ]
  %56 = tail call ptr (ptr, ptr, ...) @luaO_pushfstring(ptr noundef %12, ptr noundef nonnull @.str.41, ptr noundef %10, ptr noundef %.0.i) #6
  br label %57

57:                                               ; preds = %txtToken.exit, %3
  %58 = load ptr, ptr %4, align 8, !tbaa !14
  tail call void @luaD_throw(ptr noundef %58, i32 noundef 3) #8
  unreachable
}